; ModuleID = '5/313.c'
source_filename = "5/313.c"
target datalayout = "e-m:e-p270:32:32-p271:32:32-p272:64:64-i64:64-f80:128-n8:16:32:64-S128"
target triple = "x86_64-pc-linux-gnu"

@.str = private unnamed_addr constant [4 x i8] c"%lf\00", align 1
@.str.1 = private unnamed_addr constant [3 x i8] c"%s\00", align 1
@.str.2 = private unnamed_addr constant [6 x i8] c"error\00", align 1
@.str.3 = private unnamed_addr constant [4 x i8] c"yes\00", align 1
@.str.4 = private unnamed_addr constant [3 x i8] c"no\00", align 1
@.str.5 = private unnamed_addr constant [3 x i8] c"%d\00", align 1

; Function Attrs: noinline nounwind uwtable
define dso_local i32 @main() #0 {
  %1 = alloca i32, align 4
  %2 = alloca [2 x [500 x i8]], align 16
  %3 = alloca [2 x i32], align 4
  %4 = alloca i32, align 4
  %5 = alloca i32, align 4
  %6 = alloca i32, align 4
  %7 = alloca i32, align 4
  %8 = alloca i32, align 4
  %9 = alloca double, align 8
  %10 = alloca double, align 8
  store i32 0, i32* %1, align 4
  store i32 0, i32* %7, align 4
  store i32 0, i32* %8, align 4
  %11 = call i32 (i8*, ...) @__isoc99_scanf(i8* getelementptr inbounds ([4 x i8], [4 x i8]* @.str, i64 0, i64 0), double* %9)
  %12 = call i32 @getchar()
  store i32 0, i32* %4, align 4
  br label %13

13:                                               ; preds = %86, %0
  %14 = load i32, i32* %4, align 4
  %15 = icmp slt i32 %14, 2
  br i1 %15, label %16, label %89

16:                                               ; preds = %13
  %17 = load i32, i32* %4, align 4
  %18 = sext i32 %17 to i64
  %19 = getelementptr inbounds [2 x [500 x i8]], [2 x [500 x i8]]* %2, i64 0, i64 %18
  %20 = getelementptr inbounds [500 x i8], [500 x i8]* %19, i64 0, i64 0
  %21 = call i32 (i8*, ...) @__isoc99_scanf(i8* getelementptr inbounds ([3 x i8], [3 x i8]* @.str.1, i64 0, i64 0), i8* %20)
  %22 = load i32, i32* %4, align 4
  %23 = sext i32 %22 to i64
  %24 = getelementptr inbounds [2 x [500 x i8]], [2 x [500 x i8]]* %2, i64 0, i64 %23
  %25 = getelementptr inbounds [500 x i8], [500 x i8]* %24, i64 0, i64 0
  %26 = call i64 @strlen(i8* %25) #3
  %27 = trunc i64 %26 to i32
  %28 = load i32, i32* %4, align 4
  %29 = sext i32 %28 to i64
  %30 = getelementptr inbounds [2 x i32], [2 x i32]* %3, i64 0, i64 %29
  store i32 %27, i32* %30, align 4
  store i32 0, i32* %5, align 4
  br label %31

31:                                               ; preds = %82, %16
  %32 = load i32, i32* %5, align 4
  %33 = load i32, i32* %4, align 4
  %34 = sext i32 %33 to i64
  %35 = getelementptr inbounds [2 x i32], [2 x i32]* %3, i64 0, i64 %34
  %36 = load i32, i32* %35, align 4
  %37 = icmp slt i32 %32, %36
  br i1 %37, label %38, label %85

38:                                               ; preds = %31
  %39 = load i32, i32* %4, align 4
  %40 = sext i32 %39 to i64
  %41 = getelementptr inbounds [2 x [500 x i8]], [2 x [500 x i8]]* %2, i64 0, i64 %40
  %42 = load i32, i32* %5, align 4
  %43 = sext i32 %42 to i64
  %44 = getelementptr inbounds [500 x i8], [500 x i8]* %41, i64 0, i64 %43
  %45 = load i8, i8* %44, align 1
  %46 = sext i8 %45 to i32
  %47 = icmp ne i32 %46, 65
  br i1 %47, label %48, label %81

48:                                               ; preds = %38
  %49 = load i32, i32* %4, align 4
  %50 = sext i32 %49 to i64
  %51 = getelementptr inbounds [2 x [500 x i8]], [2 x [500 x i8]]* %2, i64 0, i64 %50
  %52 = load i32, i32* %5, align 4
  %53 = sext i32 %52 to i64
  %54 = getelementptr inbounds [500 x i8], [500 x i8]* %51, i64 0, i64 %53
  %55 = load i8, i8* %54, align 1
  %56 = sext i8 %55 to i32
  %57 = icmp ne i32 %56, 84
  br i1 %57, label %58, label %81

58:                                               ; preds = %48
  %59 = load i32, i32* %4, align 4
  %60 = sext i32 %59 to i64
  %61 = getelementptr inbounds [2 x [500 x i8]], [2 x [500 x i8]]* %2, i64 0, i64 %60
  %62 = load i32, i32* %5, align 4
  %63 = sext i32 %62 to i64
  %64 = getelementptr inbounds [500 x i8], [500 x i8]* %61, i64 0, i64 %63
  %65 = load i8, i8* %64, align 1
  %66 = sext i8 %65 to i32
  %67 = icmp ne i32 %66, 67
  br i1 %67, label %68, label %81

68:                                               ; preds = %58
  %69 = load i32, i32* %4, align 4
  %70 = sext i32 %69 to i64
  %71 = getelementptr inbounds [2 x [500 x i8]], [2 x [500 x i8]]* %2, i64 0, i64 %70
  %72 = load i32, i32* %5, align 4
  %73 = sext i32 %72 to i64
  %74 = getelementptr inbounds [500 x i8], [500 x i8]* %71, i64 0, i64 %73
  %75 = load i8, i8* %74, align 1
  %76 = sext i8 %75 to i32
  %77 = icmp ne i32 %76, 71
  br i1 %77, label %78, label %81

78:                                               ; preds = %68
  %79 = load i32, i32* %7, align 4
  %80 = add nsw i32 %79, 1
  store i32 %80, i32* %7, align 4
  br label %81

81:                                               ; preds = %78, %68, %58, %48, %38
  br label %82

82:                                               ; preds = %81
  %83 = load i32, i32* %5, align 4
  %84 = add nsw i32 %83, 1
  store i32 %84, i32* %5, align 4
  br label %31

85:                                               ; preds = %31
  br label %86

86:                                               ; preds = %85
  %87 = load i32, i32* %4, align 4
  %88 = add nsw i32 %87, 1
  store i32 %88, i32* %4, align 4
  br label %13

89:                                               ; preds = %13
  %90 = getelementptr inbounds [2 x i32], [2 x i32]* %3, i64 0, i64 0
  %91 = load i32, i32* %90, align 4
  %92 = getelementptr inbounds [2 x i32], [2 x i32]* %3, i64 0, i64 1
  %93 = load i32, i32* %92, align 4
  %94 = icmp ne i32 %91, %93
  br i1 %94, label %98, label %95

95:                                               ; preds = %89
  %96 = load i32, i32* %7, align 4
  %97 = icmp ne i32 %96, 0
  br i1 %97, label %98, label %100

98:                                               ; preds = %95, %89
  %99 = call i32 (i8*, ...) @printf(i8* getelementptr inbounds ([6 x i8], [6 x i8]* @.str.2, i64 0, i64 0))
  store i32 0, i32* %1, align 4
  br label %145

100:                                              ; preds = %95
  store i32 0, i32* %5, align 4
  br label %101

101:                                              ; preds = %124, %100
  %102 = load i32, i32* %5, align 4
  %103 = getelementptr inbounds [2 x i32], [2 x i32]* %3, i64 0, i64 0
  %104 = load i32, i32* %103, align 4
  %105 = icmp slt i32 %102, %104
  br i1 %105, label %106, label %127

106:                                              ; preds = %101
  %107 = getelementptr inbounds [2 x [500 x i8]], [2 x [500 x i8]]* %2, i64 0, i64 0
  %108 = load i32, i32* %5, align 4
  %109 = sext i32 %108 to i64
  %110 = getelementptr inbounds [500 x i8], [500 x i8]* %107, i64 0, i64 %109
  %111 = load i8, i8* %110, align 1
  %112 = sext i8 %111 to i32
  %113 = getelementptr inbounds [2 x [500 x i8]], [2 x [500 x i8]]* %2, i64 0, i64 1
  %114 = load i32, i32* %5, align 4
  %115 = sext i32 %114 to i64
  %116 = getelementptr inbounds [500 x i8], [500 x i8]* %113, i64 0, i64 %115
  %117 = load i8, i8* %116, align 1
  %118 = sext i8 %117 to i32
  %119 = icmp eq i32 %112, %118
  br i1 %119, label %120, label %123

120:                                              ; preds = %106
  %121 = load i32, i32* %8, align 4
  %122 = add nsw i32 %121, 1
  store i32 %122, i32* %8, align 4
  br label %123

123:                                              ; preds = %120, %106
  br label %124

124:                                              ; preds = %123
  %125 = load i32, i32* %5, align 4
  %126 = add nsw i32 %125, 1
  store i32 %126, i32* %5, align 4
  br label %101

127:                                              ; preds = %101
  br label %128

128:                                              ; preds = %127
  %129 = load i32, i32* %8, align 4
  %130 = sitofp i32 %129 to double
  %131 = fmul double 1.000000e+00, %130
  %132 = getelementptr inbounds [2 x i32], [2 x i32]* %3, i64 0, i64 0
  %133 = load i32, i32* %132, align 4
  %134 = sitofp i32 %133 to double
  %135 = fdiv double %131, %134
  store double %135, double* %10, align 8
  %136 = load double, double* %10, align 8
  %137 = load double, double* %9, align 8
  %138 = fcmp ogt double %136, %137
  br i1 %138, label %139, label %141

139:                                              ; preds = %128
  %140 = call i32 (i8*, ...) @printf(i8* getelementptr inbounds ([4 x i8], [4 x i8]* @.str.3, i64 0, i64 0))
  br label %143

141:                                              ; preds = %128
  %142 = call i32 (i8*, ...) @printf(i8* getelementptr inbounds ([3 x i8], [3 x i8]* @.str.4, i64 0, i64 0))
  br label %143

143:                                              ; preds = %141, %139
  %144 = call i32 (i8*, ...) @__isoc99_scanf(i8* getelementptr inbounds ([3 x i8], [3 x i8]* @.str.5, i64 0, i64 0), i32* %6)
  store i32 0, i32* %1, align 4
  br label %145

145:                                              ; preds = %143, %98
  %146 = load i32, i32* %1, align 4
  ret i32 %146
}

declare dso_local i32 @__isoc99_scanf(i8*, ...) #1

declare dso_local i32 @getchar() #1

; Function Attrs: nounwind readonly
declare dso_local i64 @strlen(i8*) #2

declare dso_local i32 @printf(i8*, ...) #1


!llvm.module.flags = !{!0}
!llvm.ident = !{!1}

!0 = !{i32 1, !"wchar_size", i32 4}
!1 = !{!"clang version 10.0.0-4ubuntu1 "}
